; Function Attrs: nounwind uwtable
define dso_local zeroext i1 @php_header() local_unnamed_addr #0 {
  %1 = tail call i32 @sapi_send_headers() #10
  %2 = icmp ne i32 %1, -1
  %3 = load i8, ptr getelementptr inbounds nuw (i8, ptr @sapi_globals, i64 72), align 8, !range !27
  %4 = trunc nuw i8 %3 to i1
  %not. = xor i1 %4, true
  %.0 = select i1 %2, i1 %not., i1 false
  ret i1 %.0
}